target datalayout = "e-m:e-p270:32:32-p271:32:32-p272:64:64-i64:64-i128:128-f80:128-n8:16:32:64-S128"
target triple = "x86_64-pc-linux-gnu"

@LogMinObjAlignmentInBytes = external global i32, align 4

; Function Attrs: mustprogress nounwind uwtable
define hidden noundef zeroext i1 @_ZN14CompressedOops29is_disjoint_heap_base_addressEPh(ptr noundef %0) #1 align 2 {
  %2 = alloca ptr, align 8
  store ptr %0, ptr %2, align 8
  %3 = load ptr, ptr %2, align 8
  %4 = ptrtoint ptr %3 to i64
  %5 = load i32, ptr @LogMinObjAlignmentInBytes, align 4
  %6 = sub nsw i32 32, %5
  %7 = zext i32 %6 to i64
  %8 = lshr i64 -1, %7
  %9 = and i64 %4, %8
  %10 = icmp eq i64 %9, 0
  ret i1 %10
}