; Function Attrs: mustprogress nofree norecurse nosync nounwind willreturn memory(read, argmem: none, inaccessiblemem: none) uwtable
define hidden noundef zeroext i1 @_ZN14CompressedOops29is_disjoint_heap_base_addressEPh(ptr noundef %0) local_unnamed_addr #3 align 2 {
  %2 = ptrtoint ptr %0 to i64
  %3 = load i32, ptr @LogMinObjAlignmentInBytes, align 4
  %4 = sub nsw i32 32, %3
  %5 = zext nneg i32 %4 to i64
  %6 = lshr i64 -1, %5
  %7 = and i64 %6, %2
  %8 = icmp eq i64 %7, 0
  ret i1 %8
}